; Function Attrs: mustprogress uwtable
define void @_ZN5boost4urls12segments_ref7replaceENS0_13segments_base8iteratorES3_St16initializer_listINS_4core17basic_string_viewIcEEE(ptr dead_on_unwind noalias writable sret(%"class.boost::urls::segments_base::iterator") align 8 %0, ptr nocapture noundef nonnull readonly align 8 dereferenceable(48) %1, ptr nocapture noundef readonly byval(%"class.boost::urls::segments_base::iterator") align 8 %2, ptr nocapture noundef readonly byval(%"class.boost::urls::segments_base::iterator") align 8 %3, ptr %4, i64 %5) local_unnamed_addr #5 align 2 personality ptr @__gxx_personality_v0 {
  %7 = alloca %"struct.boost::urls::detail::segments_iter.2", align 8
  %8 = alloca %"class.boost::urls::segments_base::iterator", align 8
  %9 = alloca %"class.boost::urls::segments_base::iterator", align 8
  call void @llvm.lifetime.start.p0(i64 104, ptr nonnull %9)
  call void @llvm.memcpy.p0.p0.i64(ptr noundef nonnull align 8 dereferenceable(104) %9, ptr noundef nonnull align 8 dereferenceable(104) %2, i64 104, i1 false)
  call void @llvm.lifetime.start.p0(i64 104, ptr nonnull %8)
  call void @llvm.memcpy.p0.p0.i64(ptr noundef nonnull align 8 dereferenceable(104) %8, ptr noundef nonnull align 8 dereferenceable(104) %3, i64 104, i1 false)
  %.idx = shl nuw nsw i64 %5, 4
  %10 = getelementptr inbounds nuw i8, ptr %4, i64 %.idx
  %11 = getelementptr inbounds nuw i8, ptr %1, i64 40
  %12 = load ptr, ptr %11, align 8, !tbaa !3, !noalias !64
  call void @llvm.lifetime.start.p0(i64 72, ptr nonnull %7) #13, !noalias !64
  %13 = getelementptr inbounds nuw i8, ptr %7, i64 8
  call void @llvm.memset.p0.i64(ptr noundef nonnull align 8 dereferenceable(37) %13, i8 0, i64 37, i1 false), !alias.scope !67, !noalias !64
  store ptr getelementptr inbounds inrange(-16, 40) (i8, ptr @_ZTVN5boost4urls6detail13segments_iterIPKNS_4core17basic_string_viewIcEEEE, i64 16), ptr %7, align 8, !tbaa !16, !alias.scope !67, !noalias !64
  %14 = getelementptr inbounds nuw i8, ptr %7, i64 48
  store ptr %4, ptr %14, align 8, !tbaa !33, !alias.scope !67, !noalias !64
  %15 = getelementptr inbounds nuw i8, ptr %7, i64 56
  store ptr %4, ptr %15, align 8, !tbaa !38, !alias.scope !67, !noalias !64
  %16 = getelementptr inbounds nuw i8, ptr %7, i64 64
  store ptr %10, ptr %16, align 8, !tbaa !39, !alias.scope !67, !noalias !64
  %.not.i.i.i = icmp eq i64 %5, 0
  br i1 %.not.i.i.i, label %_ZN5boost4urls12segments_ref7replaceIPKNS_4core17basic_string_viewIcEEEENS0_13segments_base8iteratorES9_S9_T_SA_.exit, label %.sink.split.i.i.i

.sink.split.i.i.i:                                ; preds = %6
  %17 = getelementptr inbounds nuw i8, ptr %7, i64 24
  call void @llvm.memcpy.p0.p0.i64(ptr noundef nonnull align 8 dereferenceable(16) %17, ptr noundef nonnull align 8 dereferenceable(16) %4, i64 16, i1 false), !tbaa.struct !40, !noalias !64
  %18 = icmp eq i64 %5, 1
  %19 = getelementptr inbounds nuw i8, ptr %7, i64 40
  %..i.i.i = select i1 %18, i32 1, i32 2
  store i32 %..i.i.i, ptr %19, align 8, !tbaa !41, !alias.scope !67, !noalias !64
  br label %_ZN5boost4urls12segments_ref7replaceIPKNS_4core17basic_string_viewIcEEEENS0_13segments_base8iteratorES9_S9_T_SA_.exit

_ZN5boost4urls12segments_ref7replaceIPKNS_4core17basic_string_viewIcEEEENS0_13segments_base8iteratorES9_S9_T_SA_.exit: ; preds = %6, %.sink.split.i.i.i
  call void @_ZN5boost4urls8url_base13edit_segmentsERKNS0_6detail18segments_iter_implES5_ONS2_17any_segments_iterEi(ptr dead_on_unwind nonnull writable sret(%"struct.boost::urls::detail::segments_iter_impl") align 8 %0, ptr noundef nonnull align 8 dereferenceable(216) %12, ptr noundef nonnull align 8 dereferenceable(104) %9, ptr noundef nonnull align 8 dereferenceable(104) %8, ptr noundef nonnull align 8 dereferenceable(45) %7, i32 noundef -1)
  call void @llvm.lifetime.end.p0(i64 72, ptr nonnull %7) #13, !noalias !64
  call void @llvm.lifetime.end.p0(i64 104, ptr nonnull %9)
  call void @llvm.lifetime.end.p0(i64 104, ptr nonnull %8)
  ret void
}